target datalayout = "e-m:e-p270:32:32-p271:32:32-p272:64:64-i64:64-i128:128-f80:128-n8:16:32:64-S128"
target triple = "x86_64-unknown-linux-gnu"

%"class.node::SigintWatchdogHelper" = type <{ i32, [4 x i8], %"class.node::MutexBase", %"class.node::MutexBase", %"class.std::vector", i8, [7 x i8], i64, %union.sem_t, i8, i8, [6 x i8] }>
%"class.node::MutexBase" = type { %union.pthread_mutex_t }
%union.pthread_mutex_t = type { %struct.__pthread_mutex_s }
%struct.__pthread_mutex_s = type { i32, i32, i32, i32, i32, i16, i16, %struct.__pthread_internal_list }
%struct.__pthread_internal_list = type { ptr, ptr }
%"class.std::vector" = type { %"struct.std::_Vector_base" }
%"struct.std::_Vector_base" = type { %"struct.std::_Vector_base<node::SigintWatchdogBase *, std::allocator<node::SigintWatchdogBase *>>::_Vector_impl" }
%"struct.std::_Vector_base<node::SigintWatchdogBase *, std::allocator<node::SigintWatchdogBase *>>::_Vector_impl" = type { %"struct.std::_Vector_base<node::SigintWatchdogBase *, std::allocator<node::SigintWatchdogBase *>>::_Vector_impl_data" }
%"struct.std::_Vector_base<node::SigintWatchdogBase *, std::allocator<node::SigintWatchdogBase *>>::_Vector_impl_data" = type { ptr, ptr, ptr }
%union.sem_t = type { i64, [24 x i8] }
%"class.node::MutexBase<node::LibuvMutexTraits>::ScopedLock" = type { ptr }
%"class.node::SigintWatchdog" = type { %"class.node::SigintWatchdogBase", ptr, ptr }
%"class.node::SigintWatchdogBase" = type { ptr }

@_ZTVN4node14SigintWatchdogE = dso_local unnamed_addr constant { [5 x ptr] } { [5 x ptr] [ptr null, ptr null, ptr @_ZN4node14SigintWatchdogD1Ev, ptr @_ZN4node14SigintWatchdogD0Ev, ptr @_ZN4node14SigintWatchdog12HandleSigintEv] }, align 8
@_ZN4node20SigintWatchdogHelper8instanceE = dso_local global %"class.node::SigintWatchdogHelper" zeroinitializer, align 8
@_ZN4node20SigintWatchdogHelper22instance_action_mutex_E = dso_local global %"class.node::MutexBase" zeroinitializer, align 8
@_ZTVN4node18SigintWatchdogBaseE = linkonce_odr dso_local unnamed_addr constant { [5 x ptr] } { [5 x ptr] [ptr null, ptr null, ptr @_ZN4node18SigintWatchdogBaseD2Ev, ptr @_ZN4node18SigintWatchdogBaseD0Ev, ptr @__cxa_pure_virtual] }, comdat, align 8

; Function Attrs: mustprogress nounwind uwtable
define linkonce_odr dso_local void @_ZN4node16LibuvMutexTraits12mutex_unlockEP15pthread_mutex_t(ptr noundef %mutex) #4 comdat align 2 {
entry:
  %mutex.addr = alloca ptr, align 8
  store ptr %mutex, ptr %mutex.addr, align 8
  %0 = load ptr, ptr %mutex.addr, align 8
  call void @uv_mutex_unlock(ptr noundef %0)
  ret void
}

; Function Attrs: mustprogress nounwind uwtable
define linkonce_odr dso_local void @_ZN4node16LibuvMutexTraits10mutex_lockEP15pthread_mutex_t(ptr noundef %mutex) #4 comdat align 2 {
entry:
  %mutex.addr = alloca ptr, align 8
  store ptr %mutex, ptr %mutex.addr, align 8
  %0 = load ptr, ptr %mutex.addr, align 8
  call void @uv_mutex_lock(ptr noundef %0)
  ret void
}

; Function Attrs: mustprogress nounwind uwtable
define linkonce_odr dso_local void @_ZN4node9MutexBaseINS_16LibuvMutexTraitsEE10ScopedLockD2Ev(ptr noundef nonnull align 8 dereferenceable(8) %this) unnamed_addr #4 comdat align 2 {
entry:
  %this.addr = alloca ptr, align 8
  store ptr %this, ptr %this.addr, align 8
  %this1 = load ptr, ptr %this.addr, align 8
  %mutex_ = getelementptr inbounds %"class.node::MutexBase<node::LibuvMutexTraits>::ScopedLock", ptr %this1, i32 0, i32 0
  %0 = load ptr, ptr %mutex_, align 8
  %mutex_2 = getelementptr inbounds %"class.node::MutexBase", ptr %0, i32 0, i32 0
  call void @_ZN4node16LibuvMutexTraits12mutex_unlockEP15pthread_mutex_t(ptr noundef %mutex_2)
  ret void
}

; Function Attrs: mustprogress nounwind uwtable
define linkonce_odr dso_local noundef ptr @_ZN4node20SigintWatchdogHelper11GetInstanceEv() #4 comdat align 2 {
entry:
  ret ptr @_ZN4node20SigintWatchdogHelper8instanceE
}

; Function Attrs: mustprogress nounwind uwtable
define linkonce_odr dso_local void @_ZN4node9MutexBaseINS_16LibuvMutexTraitsEE10ScopedLockC2ERKS2_(ptr noundef nonnull align 8 dereferenceable(8) %this, ptr noundef nonnull align 8 dereferenceable(40) %mutex) unnamed_addr #4 comdat align 2 {
entry:
  %this.addr = alloca ptr, align 8
  %mutex.addr = alloca ptr, align 8
  store ptr %this, ptr %this.addr, align 8
  store ptr %mutex, ptr %mutex.addr, align 8
  %this1 = load ptr, ptr %this.addr, align 8
  %mutex_ = getelementptr inbounds %"class.node::MutexBase<node::LibuvMutexTraits>::ScopedLock", ptr %this1, i32 0, i32 0
  %0 = load ptr, ptr %mutex.addr, align 8
  store ptr %0, ptr %mutex_, align 8
  %mutex_2 = getelementptr inbounds %"class.node::MutexBase<node::LibuvMutexTraits>::ScopedLock", ptr %this1, i32 0, i32 0
  %1 = load ptr, ptr %mutex_2, align 8
  %mutex_3 = getelementptr inbounds %"class.node::MutexBase", ptr %1, i32 0, i32 0
  call void @_ZN4node16LibuvMutexTraits10mutex_lockEP15pthread_mutex_t(ptr noundef %mutex_3)
  ret void
}

; Function Attrs: mustprogress nounwind uwtable
define linkonce_odr dso_local noundef nonnull align 8 dereferenceable(40) ptr @_ZN4node20SigintWatchdogHelper22GetInstanceActionMutexEv() #4 comdat align 2 {
entry:
  ret ptr @_ZN4node20SigintWatchdogHelper22instance_action_mutex_E
}

; Function Attrs: mustprogress nounwind uwtable
define linkonce_odr dso_local void @_ZN4node18SigintWatchdogBaseC2Ev(ptr noundef nonnull align 8 dereferenceable(8) %this) unnamed_addr #4 comdat align 2 {
entry:
  %this.addr = alloca ptr, align 8
  store ptr %this, ptr %this.addr, align 8
  %this1 = load ptr, ptr %this.addr, align 8
  store ptr getelementptr inbounds ({ [5 x ptr] }, ptr @_ZTVN4node18SigintWatchdogBaseE, i32 0, i32 0, i32 2), ptr %this1, align 8
  ret void
}

; Function Attrs: mustprogress nounwind uwtable
define dso_local void @_ZN4node14SigintWatchdogC2EPN2v87IsolateEPb(ptr noundef nonnull align 8 dereferenceable(24) %this, ptr noundef %isolate, ptr noundef %received_signal) unnamed_addr #4 align 2 {
entry:
  %this.addr = alloca ptr, align 8
  %isolate.addr = alloca ptr, align 8
  %received_signal.addr = alloca ptr, align 8
  %lock = alloca %"class.node::MutexBase<node::LibuvMutexTraits>::ScopedLock", align 8
  store ptr %this, ptr %this.addr, align 8
  store ptr %isolate, ptr %isolate.addr, align 8
  store ptr %received_signal, ptr %received_signal.addr, align 8
  %this1 = load ptr, ptr %this.addr, align 8
  call void @_ZN4node18SigintWatchdogBaseC2Ev(ptr noundef nonnull align 8 dereferenceable(8) %this1) #3
  store ptr getelementptr inbounds ({ [5 x ptr] }, ptr @_ZTVN4node14SigintWatchdogE, i32 0, i32 0, i32 2), ptr %this1, align 8
  %isolate_ = getelementptr inbounds %"class.node::SigintWatchdog", ptr %this1, i32 0, i32 1
  %0 = load ptr, ptr %isolate.addr, align 8
  store ptr %0, ptr %isolate_, align 8
  %received_signal_ = getelementptr inbounds %"class.node::SigintWatchdog", ptr %this1, i32 0, i32 2
  %1 = load ptr, ptr %received_signal.addr, align 8
  store ptr %1, ptr %received_signal_, align 8
  %call = call noundef nonnull align 8 dereferenceable(40) ptr @_ZN4node20SigintWatchdogHelper22GetInstanceActionMutexEv()
  call void @_ZN4node9MutexBaseINS_16LibuvMutexTraitsEE10ScopedLockC2ERKS2_(ptr noundef nonnull align 8 dereferenceable(8) %lock, ptr noundef nonnull align 8 dereferenceable(40) %call)
  %call2 = call noundef ptr @_ZN4node20SigintWatchdogHelper11GetInstanceEv()
  call void @_ZN4node20SigintWatchdogHelper8RegisterEPNS_18SigintWatchdogBaseE(ptr noundef nonnull align 8 dereferenceable(162) %call2, ptr noundef %this1)
  %call3 = call noundef ptr @_ZN4node20SigintWatchdogHelper11GetInstanceEv()
  %call4 = call noundef i32 @_ZN4node20SigintWatchdogHelper5StartEv(ptr noundef nonnull align 8 dereferenceable(162) %call3)
  call void @_ZN4node9MutexBaseINS_16LibuvMutexTraitsEE10ScopedLockD2Ev(ptr noundef nonnull align 8 dereferenceable(8) %lock) #3
  ret void
}