; Function Attrs: mustprogress nounwind uwtable
define dso_local void @_ZN4node14SigintWatchdogC2EPN2v87IsolateEPb(ptr noundef nonnull align 8 dereferenceable(24) %this, ptr noundef %isolate, ptr noundef %received_signal) unnamed_addr #3 align 2 {
entry:
  store ptr getelementptr inbounds ({ [5 x ptr] }, ptr @_ZTVN4node14SigintWatchdogE, i64 0, i32 0, i64 2), ptr %this, align 8
  %isolate_ = getelementptr inbounds i8, ptr %this, i64 8
  store ptr %isolate, ptr %isolate_, align 8
  %received_signal_ = getelementptr inbounds i8, ptr %this, i64 16
  store ptr %received_signal, ptr %received_signal_, align 8
  tail call void @uv_mutex_lock(ptr noundef nonnull @_ZN4node20SigintWatchdogHelper22instance_action_mutex_E) #15
  tail call void @_ZN4node20SigintWatchdogHelper8RegisterEPNS_18SigintWatchdogBaseE(ptr noundef nonnull align 8 dereferenceable(162) @_ZN4node20SigintWatchdogHelper8instanceE, ptr noundef nonnull %this)
  %call4 = tail call noundef i32 @_ZN4node20SigintWatchdogHelper5StartEv(ptr noundef nonnull align 8 dereferenceable(162) @_ZN4node20SigintWatchdogHelper8instanceE)
  tail call void @uv_mutex_unlock(ptr noundef nonnull @_ZN4node20SigintWatchdogHelper22instance_action_mutex_E) #15
  ret void
}